target datalayout = "e-m:e-p270:32:32-p271:32:32-p272:64:64-i64:64-i128:128-f80:128-n8:16:32:64-S128"
target triple = "x86_64-pc-linux-gnu"

%struct.H5B2_t = type { ptr, ptr }
%struct.H5B2_hdr_t = type { %struct.H5C_cache_entry_t, %struct.H5B2_node_ptr_t, i8, i8, i32, i32, i16, i8, ptr, i64, i64, i64, i64, i8, i8, i8, ptr, ptr, ptr, ptr, ptr, ptr, ptr, i8, ptr, ptr, i64, ptr, ptr }
%struct.H5C_cache_entry_t = type { ptr, i64, i64, ptr, i8, ptr, i8, i8, i8, i8, i32, i8, i8, i8, i8, i8, i32, ptr, i32, i32, i32, i32, i32, i8, i8, ptr, ptr, ptr, ptr, ptr, ptr, i8, i32, i8, i64, ptr, i64, i64, i32, i8, i32, i32, i8, ptr, ptr, ptr }
%struct.H5B2_node_ptr_t = type { i64, i16, i64 }

@H5B2_init_g = global i8 0, align 1
@H5_libterm_g = external global i8, align 1
@.str = private unnamed_addr constant [98 x i8] c"generated/home/dtcxzyw/WorkSpace/Projects/compilers/llvm-opt-benchmark/bench/hdf5/hdf5/src/H5B2.c\00", align 1
@H5E_BTREE_g = external global i64, align 8
@__func__.H5B2_iterate = private unnamed_addr constant [13 x i8] c"H5B2_iterate\00", align 1
@H5E_CANTLIST_g = external global i64, align 8
@.str.14 = private unnamed_addr constant [22 x i8] c"node iteration failed\00", align 1

; Function Attrs: nounwind uwtable
define i32 @H5B2_iterate(ptr noundef %0, ptr noundef %1, ptr noundef %2) #0 {
  %4 = alloca ptr, align 8
  %5 = alloca ptr, align 8
  %6 = alloca ptr, align 8
  %7 = alloca ptr, align 8
  %8 = alloca i32, align 4
  store ptr %0, ptr %4, align 8, !tbaa !11
  store ptr %1, ptr %5, align 8, !tbaa !10
  store ptr %2, ptr %6, align 8, !tbaa !10
  call void @llvm.lifetime.start.p0(i64 8, ptr %7) #6
  call void @llvm.lifetime.start.p0(i64 4, ptr %8) #6
  store i32 0, ptr %8, align 4, !tbaa !24
  %9 = load i8, ptr @H5B2_init_g, align 1, !tbaa !15, !range !17, !noundef !18
  %10 = trunc i8 %9 to i1
  br i1 %10, label %15, label %11

11:                                               ; preds = %3
  %12 = load i8, ptr @H5_libterm_g, align 1, !tbaa !15, !range !17, !noundef !18
  %13 = trunc i8 %12 to i1
  %14 = xor i1 %13, true
  br label %15

15:                                               ; preds = %11, %3
  %16 = phi i1 [ false, %3 ], [ %14, %11 ]
  %17 = xor i1 %16, true
  %18 = xor i1 %17, true
  %19 = zext i1 %18 to i32
  %20 = sext i32 %19 to i64
  %21 = call i64 @llvm.expect.i64(i64 %20, i64 0)
  %22 = icmp ne i64 %21, 0
  br i1 %22, label %23, label %24

23:                                               ; preds = %15
  store i8 1, ptr @H5B2_init_g, align 1, !tbaa !15
  br label %24

24:                                               ; preds = %23, %15
  %25 = load i8, ptr @H5B2_init_g, align 1, !tbaa !15, !range !17, !noundef !18
  %26 = trunc i8 %25 to i1
  br i1 %26, label %31, label %27

27:                                               ; preds = %24
  %28 = load i8, ptr @H5_libterm_g, align 1, !tbaa !15, !range !17, !noundef !18
  %29 = trunc i8 %28 to i1
  %30 = xor i1 %29, true
  br label %31

31:                                               ; preds = %27, %24
  %32 = phi i1 [ true, %24 ], [ %30, %27 ]
  %33 = xor i1 %32, true
  %34 = xor i1 %33, true
  %35 = zext i1 %34 to i32
  %36 = sext i32 %35 to i64
  %37 = call i64 @llvm.expect.i64(i64 %36, i64 1)
  %38 = icmp ne i64 %37, 0
  br i1 %38, label %39, label %77

39:                                               ; preds = %31
  %40 = load ptr, ptr %4, align 8, !tbaa !11
  %41 = getelementptr inbounds nuw %struct.H5B2_t, ptr %40, i32 0, i32 1
  %42 = load ptr, ptr %41, align 8, !tbaa !23
  %43 = load ptr, ptr %4, align 8, !tbaa !11
  %44 = getelementptr inbounds nuw %struct.H5B2_t, ptr %43, i32 0, i32 0
  %45 = load ptr, ptr %44, align 8, !tbaa !21
  %46 = getelementptr inbounds nuw %struct.H5B2_hdr_t, ptr %45, i32 0, i32 8
  store ptr %42, ptr %46, align 8, !tbaa !26
  %47 = load ptr, ptr %4, align 8, !tbaa !11
  %48 = getelementptr inbounds nuw %struct.H5B2_t, ptr %47, i32 0, i32 0
  %49 = load ptr, ptr %48, align 8, !tbaa !21
  store ptr %49, ptr %7, align 8, !tbaa !13
  %50 = load ptr, ptr %7, align 8, !tbaa !13
  %51 = getelementptr inbounds nuw %struct.H5B2_hdr_t, ptr %50, i32 0, i32 1
  %52 = getelementptr inbounds nuw %struct.H5B2_node_ptr_t, ptr %51, i32 0, i32 1
  %53 = load i16, ptr %52, align 8, !tbaa !45
  %54 = zext i16 %53 to i32
  %55 = icmp sgt i32 %54, 0
  br i1 %55, label %56, label %76

56:                                               ; preds = %39
  %57 = load ptr, ptr %7, align 8, !tbaa !13
  %58 = load ptr, ptr %7, align 8, !tbaa !13
  %59 = getelementptr inbounds nuw %struct.H5B2_hdr_t, ptr %58, i32 0, i32 6
  %60 = load i16, ptr %59, align 4, !tbaa !43
  %61 = load ptr, ptr %7, align 8, !tbaa !13
  %62 = getelementptr inbounds nuw %struct.H5B2_hdr_t, ptr %61, i32 0, i32 1
  %63 = load ptr, ptr %7, align 8, !tbaa !13
  %64 = load ptr, ptr %5, align 8, !tbaa !10
  %65 = load ptr, ptr %6, align 8, !tbaa !10
  %66 = call i32 @H5B2__iterate_node(ptr noundef %57, i16 noundef zeroext %60, ptr noundef %62, ptr noundef %63, ptr noundef %64, ptr noundef %65)
  store i32 %66, ptr %8, align 4, !tbaa !24
  %67 = icmp slt i32 %66, 0
  br i1 %67, label %68, label %75

68:                                               ; preds = %56
  br label %69

69:                                               ; preds = %68
  %70 = load i64, ptr @H5E_BTREE_g, align 8, !tbaa !19
  %71 = load i64, ptr @H5E_CANTLIST_g, align 8, !tbaa !19
  %72 = call i32 (ptr, ptr, i32, i64, i64, ptr, ...) @H5E_printf_stack(ptr noundef @.str, ptr noundef @__func__.H5B2_iterate, i32 noundef 408, i64 noundef %70, i64 noundef %71, ptr noundef @.str.14)
  br label %73

73:                                               ; preds = %69
  br label %74

74:                                               ; preds = %73
  br label %75

75:                                               ; preds = %74, %56
  br label %76

76:                                               ; preds = %75, %39
  br label %77

77:                                               ; preds = %76, %31
  %78 = load i32, ptr %8, align 4, !tbaa !24
  call void @llvm.lifetime.end.p0(i64 4, ptr %8) #6
  call void @llvm.lifetime.end.p0(i64 8, ptr %7) #6
  ret i32 %78
}