; Function Attrs: nounwind uwtable
define i32 @H5B2_iterate(ptr noundef readonly captures(none) %0, ptr noundef %1, ptr noundef %2) local_unnamed_addr #0 {
  %4 = load i8, ptr @H5B2_init_g, align 1, !tbaa !3, !range !7, !noundef !8
  %5 = trunc nuw i8 %4 to i1
  %6 = load i8, ptr @H5_libterm_g, align 1, !range !7
  %7 = trunc nuw i8 %6 to i1
  %8 = select i1 %5, i1 true, i1 %7
  br i1 %8, label %9, label %.thread, !prof !9

.thread:                                          ; preds = %3
  store i8 1, ptr @H5B2_init_g, align 1, !tbaa !3
  br label %12

9:                                                ; preds = %3
  %10 = xor i1 %7, true
  %11 = select i1 %5, i1 true, i1 %10
  br i1 %11, label %12, label %29, !prof !10

12:                                               ; preds = %.thread, %9
  %13 = getelementptr inbounds nuw i8, ptr %0, i64 8
  %14 = load ptr, ptr %13, align 8, !tbaa !18
  %15 = load ptr, ptr %0, align 8, !tbaa !13
  %16 = getelementptr inbounds nuw i8, ptr %15, i64 288
  store ptr %14, ptr %16, align 8, !tbaa !19
  %17 = getelementptr inbounds nuw i8, ptr %15, i64 256
  %18 = load i16, ptr %17, align 8, !tbaa !39
  %.not = icmp eq i16 %18, 0
  br i1 %.not, label %29, label %19

19:                                               ; preds = %12
  %20 = getelementptr inbounds nuw i8, ptr %15, i64 248
  %21 = getelementptr inbounds nuw i8, ptr %15, i64 284
  %22 = load i16, ptr %21, align 4, !tbaa !38
  %23 = tail call i32 @H5B2__iterate_node(ptr noundef nonnull %15, i16 noundef zeroext %22, ptr noundef nonnull %20, ptr noundef nonnull %15, ptr noundef %1, ptr noundef %2) #7
  %24 = icmp slt i32 %23, 0
  br i1 %24, label %25, label %29

25:                                               ; preds = %19
  %26 = load i64, ptr @H5E_BTREE_g, align 8, !tbaa !11
  %27 = load i64, ptr @H5E_CANTLIST_g, align 8, !tbaa !11
  %28 = tail call i32 (ptr, ptr, i32, i64, i64, ptr, ...) @H5E_printf_stack(ptr noundef nonnull @.str, ptr noundef nonnull @__func__.H5B2_iterate, i32 noundef 408, i64 noundef %26, i64 noundef %27, ptr noundef nonnull @.str.14) #7
  br label %29

29:                                               ; preds = %12, %25, %19, %9
  %.0 = phi i32 [ %23, %25 ], [ %23, %19 ], [ 0, %12 ], [ 0, %9 ]
  ret i32 %.0
}